target datalayout = "e-m:e-p270:32:32-p271:32:32-p272:64:64-i64:64-i128:128-f80:128-n8:16:32:64-S128"
target triple = "x86_64-pc-linux-gnu"

; Function Attrs: nounwind sspstrong uwtable
define internal i32 @case_map(ptr noundef %0, ptr noundef %1, ptr noundef %2, ptr noundef %3, ptr noundef %4, ptr noundef %5) #0 {
  %7 = alloca ptr, align 8
  %8 = alloca ptr, align 8
  %9 = alloca ptr, align 8
  %10 = alloca ptr, align 8
  %11 = alloca ptr, align 8
  %12 = alloca ptr, align 8
  %13 = alloca i32, align 4
  %14 = alloca ptr, align 8
  %15 = alloca i32, align 4
  store ptr %0, ptr %7, align 8, !tbaa !23
  store ptr %1, ptr %8, align 8, !tbaa !14
  store ptr %2, ptr %9, align 8, !tbaa !16
  store ptr %3, ptr %10, align 8, !tbaa !16
  store ptr %4, ptr %11, align 8, !tbaa !16
  store ptr %5, ptr %12, align 8, !tbaa !17
  call void @llvm.lifetime.start.p0(i64 4, ptr %13) #3
  call void @llvm.lifetime.start.p0(i64 8, ptr %14) #3
  %16 = load ptr, ptr %10, align 8, !tbaa !16
  store ptr %16, ptr %14, align 8, !tbaa !16
  call void @llvm.lifetime.start.p0(i64 4, ptr %15) #3
  %17 = load ptr, ptr %7, align 8, !tbaa !23
  %18 = load i32, ptr %17, align 4, !tbaa !13
  store i32 %18, ptr %15, align 4, !tbaa !13
  br label %19

19:                                               ; preds = %130, %6
  %20 = load ptr, ptr %8, align 8, !tbaa !14
  %21 = load ptr, ptr %20, align 8, !tbaa !16
  %22 = load ptr, ptr %9, align 8, !tbaa !16
  %23 = icmp ult ptr %21, %22
  br i1 %23, label %24, label %28

24:                                               ; preds = %19
  %25 = load ptr, ptr %10, align 8, !tbaa !16
  %26 = load ptr, ptr %11, align 8, !tbaa !16
  %27 = icmp ult ptr %25, %26
  br label %28

28:                                               ; preds = %24, %19
  %29 = phi i1 [ false, %19 ], [ %27, %24 ]
  br i1 %29, label %30, label %131

30:                                               ; preds = %28
  %31 = load ptr, ptr %8, align 8, !tbaa !14
  %32 = load ptr, ptr %31, align 8, !tbaa !16
  %33 = getelementptr inbounds nuw i8, ptr %32, i32 1
  store ptr %33, ptr %31, align 8, !tbaa !16
  %34 = load i8, ptr %32, align 1, !tbaa !19
  %35 = zext i8 %34 to i32
  store i32 %35, ptr %13, align 4, !tbaa !13
  %36 = load i32, ptr %13, align 4, !tbaa !13
  %37 = icmp eq i32 %36, 223
  br i1 %37, label %38, label %62

38:                                               ; preds = %30
  %39 = load i32, ptr %15, align 4, !tbaa !13
  %40 = and i32 %39, 8192
  %41 = icmp ne i32 %40, 0
  br i1 %41, label %42, label %51

42:                                               ; preds = %38
  %43 = load i32, ptr %15, align 4, !tbaa !13
  %44 = or i32 %43, 262144
  store i32 %44, ptr %15, align 4, !tbaa !13
  %45 = load ptr, ptr %10, align 8, !tbaa !16
  %46 = getelementptr inbounds nuw i8, ptr %45, i32 1
  store ptr %46, ptr %10, align 8, !tbaa !16
  store i8 83, ptr %45, align 1, !tbaa !19
  %47 = load i32, ptr %15, align 4, !tbaa !13
  %48 = and i32 %47, 32768
  %49 = icmp ne i32 %48, 0
  %50 = select i1 %49, i32 115, i32 83
  store i32 %50, ptr %13, align 4, !tbaa !13
  br label %61

51:                                               ; preds = %38
  %52 = load i32, ptr %15, align 4, !tbaa !13
  %53 = and i32 %52, 524288
  %54 = icmp ne i32 %53, 0
  br i1 %54, label %55, label %60

55:                                               ; preds = %51
  %56 = load i32, ptr %15, align 4, !tbaa !13
  %57 = or i32 %56, 262144
  store i32 %57, ptr %15, align 4, !tbaa !13
  %58 = load ptr, ptr %10, align 8, !tbaa !16
  %59 = getelementptr inbounds nuw i8, ptr %58, i32 1
  store ptr %59, ptr %10, align 8, !tbaa !16
  store i8 115, ptr %58, align 1, !tbaa !19
  store i32 115, ptr %13, align 4, !tbaa !13
  br label %60

60:                                               ; preds = %55, %51
  br label %61

61:                                               ; preds = %60, %42
  br label %119

62:                                               ; preds = %30
  %63 = load i32, ptr %13, align 4, !tbaa !13
  %64 = icmp eq i32 %63, 189
  br i1 %64, label %68, label %65

65:                                               ; preds = %62
  %66 = load i32, ptr %13, align 4, !tbaa !13
  %67 = icmp eq i32 %66, 255
  br i1 %67, label %68, label %69

68:                                               ; preds = %65, %62
  br label %118

69:                                               ; preds = %65
  %70 = load i32, ptr %13, align 4, !tbaa !13
  %71 = zext i32 %70 to i64
  %72 = getelementptr inbounds nuw [256 x i16], ptr @EncISO_8859_10_CtypeTable, i64 0, i64 %71
  %73 = load i16, ptr %72, align 2, !tbaa !21
  %74 = zext i16 %73 to i32
  %75 = and i32 %74, 1024
  %76 = icmp ne i32 %75, 0
  br i1 %76, label %77, label %89

77:                                               ; preds = %69
  %78 = load i32, ptr %15, align 4, !tbaa !13
  %79 = and i32 %78, 540672
  %80 = icmp ne i32 %79, 0
  br i1 %80, label %81, label %89

81:                                               ; preds = %77
  %82 = load i32, ptr %15, align 4, !tbaa !13
  %83 = or i32 %82, 262144
  store i32 %83, ptr %15, align 4, !tbaa !13
  %84 = load i32, ptr %13, align 4, !tbaa !13
  %85 = zext i32 %84 to i64
  %86 = getelementptr inbounds nuw [256 x i8], ptr @EncISO_8859_10_ToLowerCaseTable, i64 0, i64 %85
  %87 = load i8, ptr %86, align 1, !tbaa !19
  %88 = zext i8 %87 to i32
  store i32 %88, ptr %13, align 4, !tbaa !13
  br label %117

89:                                               ; preds = %77, %69
  %90 = load i32, ptr %13, align 4, !tbaa !13
  %91 = zext i32 %90 to i64
  %92 = getelementptr inbounds nuw [256 x i16], ptr @EncISO_8859_10_CtypeTable, i64 0, i64 %91
  %93 = load i16, ptr %92, align 2, !tbaa !21
  %94 = zext i16 %93 to i32
  %95 = and i32 %94, 64
  %96 = icmp ne i32 %95, 0
  br i1 %96, label %97, label %116

97:                                               ; preds = %89
  %98 = load i32, ptr %15, align 4, !tbaa !13
  %99 = and i32 %98, 8192
  %100 = icmp ne i32 %99, 0
  br i1 %100, label %101, label %116

101:                                              ; preds = %97
  %102 = load i32, ptr %15, align 4, !tbaa !13
  %103 = or i32 %102, 262144
  store i32 %103, ptr %15, align 4, !tbaa !13
  %104 = load i32, ptr %13, align 4, !tbaa !13
  %105 = icmp uge i32 %104, 160
  br i1 %105, label %106, label %112

106:                                              ; preds = %101
  %107 = load i32, ptr %13, align 4, !tbaa !13
  %108 = icmp ule i32 %107, 191
  br i1 %108, label %109, label %112

109:                                              ; preds = %106
  %110 = load i32, ptr %13, align 4, !tbaa !13
  %111 = sub i32 %110, 16
  store i32 %111, ptr %13, align 4, !tbaa !13
  br label %115

112:                                              ; preds = %106, %101
  %113 = load i32, ptr %13, align 4, !tbaa !13
  %114 = sub i32 %113, 32
  store i32 %114, ptr %13, align 4, !tbaa !13
  br label %115

115:                                              ; preds = %112, %109
  br label %116

116:                                              ; preds = %115, %97, %89
  br label %117

117:                                              ; preds = %116, %81
  br label %118

118:                                              ; preds = %117, %68
  br label %119

119:                                              ; preds = %118, %61
  %120 = load i32, ptr %13, align 4, !tbaa !13
  %121 = trunc i32 %120 to i8
  %122 = load ptr, ptr %10, align 8, !tbaa !16
  %123 = getelementptr inbounds nuw i8, ptr %122, i32 1
  store ptr %123, ptr %10, align 8, !tbaa !16
  store i8 %121, ptr %122, align 1, !tbaa !19
  %124 = load i32, ptr %15, align 4, !tbaa !13
  %125 = and i32 %124, 32768
  %126 = icmp ne i32 %125, 0
  br i1 %126, label %127, label %130

127:                                              ; preds = %119
  %128 = load i32, ptr %15, align 4, !tbaa !13
  %129 = xor i32 %128, 57344
  store i32 %129, ptr %15, align 4, !tbaa !13
  br label %130

130:                                              ; preds = %127, %119
  br label %19, !llvm.loop !25

131:                                              ; preds = %28
  %132 = load i32, ptr %15, align 4, !tbaa !13
  %133 = load ptr, ptr %7, align 8, !tbaa !23
  store i32 %132, ptr %133, align 4, !tbaa !13
  %134 = load ptr, ptr %10, align 8, !tbaa !16
  %135 = load ptr, ptr %14, align 8, !tbaa !16
  %136 = ptrtoint ptr %134 to i64
  %137 = ptrtoint ptr %135 to i64
  %138 = sub i64 %136, %137
  %139 = trunc i64 %138 to i32
  call void @llvm.lifetime.end.p0(i64 4, ptr %15) #3
  call void @llvm.lifetime.end.p0(i64 8, ptr %14) #3
  call void @llvm.lifetime.end.p0(i64 4, ptr %13) #3
  ret i32 %139
}