; Function Attrs: nofree norecurse nosync nounwind sspstrong memory(read, argmem: readwrite, inaccessiblemem: none) uwtable
define internal i32 @case_map(ptr noundef captures(none) %0, ptr noundef captures(none) %1, ptr noundef readnone captures(address) %2, ptr noundef %3, ptr noundef readnone captures(address) %4, ptr readnone captures(none) %5) #4 {
  %7 = load i32, ptr %0, align 4, !tbaa !14
  %8 = load ptr, ptr %1, align 8, !tbaa !6
  %9 = icmp ult ptr %8, %2
  %10 = icmp ult ptr %3, %4
  %11 = and i1 %9, %10
  br i1 %11, label %.lr.ph, label %._crit_edge

.lr.ph:                                           ; preds = %6, %47
  %12 = phi ptr [ %51, %47 ], [ %8, %6 ]
  %.053 = phi i32 [ %spec.select, %47 ], [ %7, %6 ]
  %.03852 = phi ptr [ %48, %47 ], [ %3, %6 ]
  %13 = getelementptr inbounds nuw i8, ptr %12, i64 1
  store ptr %13, ptr %1, align 8, !tbaa !6
  %14 = load i8, ptr %12, align 1, !tbaa !11
  switch i8 %14, label %27 [
    i8 -33, label %15
    i8 -1, label %47
    i8 -67, label %47
  ]

15:                                               ; preds = %.lr.ph
  %16 = and i32 %.053, 8192
  %.not47 = icmp eq i32 %16, 0
  br i1 %.not47, label %22, label %17

17:                                               ; preds = %15
  %18 = or i32 %.053, 262144
  %19 = getelementptr inbounds nuw i8, ptr %.03852, i64 1
  store i8 83, ptr %.03852, align 1, !tbaa !11
  %20 = and i32 %.053, 32768
  %.not49 = icmp eq i32 %20, 0
  %21 = select i1 %.not49, i8 83, i8 115
  br label %47

22:                                               ; preds = %15
  %23 = and i32 %.053, 524288
  %.not48 = icmp eq i32 %23, 0
  br i1 %.not48, label %47, label %24

24:                                               ; preds = %22
  %25 = or i32 %.053, 262144
  %26 = getelementptr inbounds nuw i8, ptr %.03852, i64 1
  store i8 115, ptr %.03852, align 1, !tbaa !11
  br label %47

27:                                               ; preds = %.lr.ph
  %28 = zext i8 %14 to i64
  %29 = getelementptr inbounds nuw [256 x i16], ptr @EncISO_8859_10_CtypeTable, i64 0, i64 %28
  %30 = load i16, ptr %29, align 2, !tbaa !12
  %31 = and i16 %30, 1024
  %.not = icmp eq i16 %31, 0
  %32 = and i32 %.053, 540672
  %.not44 = icmp eq i32 %32, 0
  %or.cond = select i1 %.not, i1 true, i1 %.not44
  br i1 %or.cond, label %37, label %33

33:                                               ; preds = %27
  %34 = or i32 %.053, 262144
  %35 = getelementptr inbounds nuw [256 x i8], ptr @EncISO_8859_10_ToLowerCaseTable, i64 0, i64 %28
  %36 = load i8, ptr %35, align 1, !tbaa !11
  br label %47

37:                                               ; preds = %27
  %38 = and i16 %30, 64
  %.not45 = icmp eq i16 %38, 0
  %39 = and i32 %.053, 8192
  %.not46 = icmp eq i32 %39, 0
  %or.cond51 = select i1 %.not45, i1 true, i1 %.not46
  br i1 %or.cond51, label %47, label %40

40:                                               ; preds = %37
  %41 = or i32 %.053, 262144
  %42 = and i8 %14, -32
  %or.cond3 = icmp eq i8 %42, -96
  br i1 %or.cond3, label %43, label %45

43:                                               ; preds = %40
  %44 = add nsw i8 %14, -16
  br label %47

45:                                               ; preds = %40
  %46 = add i8 %14, -32
  br label %47

47:                                               ; preds = %.lr.ph, %.lr.ph, %37, %45, %43, %33, %17, %24, %22
  %.040 = phi i8 [ %21, %17 ], [ 115, %24 ], [ -33, %22 ], [ %36, %33 ], [ %44, %43 ], [ %46, %45 ], [ %14, %37 ], [ %14, %.lr.ph ], [ %14, %.lr.ph ]
  %.139 = phi ptr [ %19, %17 ], [ %26, %24 ], [ %.03852, %22 ], [ %.03852, %33 ], [ %.03852, %43 ], [ %.03852, %45 ], [ %.03852, %37 ], [ %.03852, %.lr.ph ], [ %.03852, %.lr.ph ]
  %.1 = phi i32 [ %18, %17 ], [ %25, %24 ], [ %.053, %22 ], [ %34, %33 ], [ %41, %43 ], [ %41, %45 ], [ %.053, %37 ], [ %.053, %.lr.ph ], [ %.053, %.lr.ph ]
  %48 = getelementptr inbounds nuw i8, ptr %.139, i64 1
  store i8 %.040, ptr %.139, align 1, !tbaa !11
  %49 = and i32 %.1, 32768
  %.not50 = icmp eq i32 %49, 0
  %50 = xor i32 %.1, 57344
  %spec.select = select i1 %.not50, i32 %.1, i32 %50
  %51 = load ptr, ptr %1, align 8, !tbaa !6
  %52 = icmp ult ptr %51, %2
  %53 = icmp ult ptr %48, %4
  %54 = select i1 %52, i1 %53, i1 false
  br i1 %54, label %.lr.ph, label %._crit_edge, !llvm.loop !16

._crit_edge:                                      ; preds = %47, %6
  %.038.lcssa = phi ptr [ %3, %6 ], [ %48, %47 ]
  %.0.lcssa = phi i32 [ %7, %6 ], [ %spec.select, %47 ]
  store i32 %.0.lcssa, ptr %0, align 4, !tbaa !14
  %55 = ptrtoint ptr %.038.lcssa to i64
  %56 = ptrtoint ptr %3 to i64
  %57 = sub i64 %55, %56
  %58 = trunc i64 %57 to i32
  ret i32 %58
}